target datalayout = "e-m:e-p270:32:32-p271:32:32-p272:64:64-i64:64-i128:128-f80:128-n8:16:32:64-S128"
target triple = "x86_64-pc-linux-gnu"

%struct.translation_ctx_st = type { ptr, i32, i32, ptr, i32, i32, ptr, i64, ptr, ptr, [50 x i8], ptr, ptr, i64 }
%struct.ossl_item_st = type { i32, ptr }

@.str.97 = private unnamed_addr constant [3 x i8] c"%d\00", align 1

; Function Attrs: inlinehint nounwind willreturn memory(read) uwtable
define available_externally i32 @atoi(ptr noundef nonnull %0) #8 {
  %2 = alloca ptr, align 8
  store ptr %0, ptr %2, align 8, !tbaa !50
  %3 = load ptr, ptr %2, align 8, !tbaa !50
  %4 = call i64 @strtol(ptr noundef %3, ptr noundef null, i32 noundef 10) #9
  %5 = trunc i64 %4 to i32
  ret i32 %5
}

; Function Attrs: nounwind uwtable
define internal i32 @fix_rsa_pss_saltlen(i32 noundef %0, ptr noundef %1, ptr noundef %2) #0 {
  %4 = alloca i32, align 4
  %5 = alloca i32, align 4
  %6 = alloca ptr, align 8
  %7 = alloca ptr, align 8
  %8 = alloca i32, align 4
  %9 = alloca i32, align 4
  %10 = alloca i64, align 8
  %11 = alloca i64, align 8
  %12 = alloca i32, align 4
  store i32 %0, ptr %5, align 4, !tbaa !8
  store ptr %1, ptr %6, align 8, !tbaa !11
  store ptr %2, ptr %7, align 8, !tbaa !43
  call void @llvm.lifetime.start.p0(i64 4, ptr %8) #9
  %13 = load i32, ptr %5, align 4, !tbaa !8
  %14 = load ptr, ptr %6, align 8, !tbaa !11
  %15 = load ptr, ptr %7, align 8, !tbaa !43
  %16 = call i32 @default_check(i32 noundef %13, ptr noundef %14, ptr noundef %15)
  store i32 %16, ptr %8, align 4, !tbaa !8
  %17 = icmp sle i32 %16, 0
  br i1 %17, label %18, label %20

18:                                               ; preds = %3
  %19 = load i32, ptr %8, align 4, !tbaa !8
  store i32 %19, ptr %4, align 4
  store i32 1, ptr %9, align 4
  br label %186

20:                                               ; preds = %3
  %21 = load i32, ptr %5, align 4, !tbaa !8
  %22 = icmp eq i32 %21, 1
  br i1 %22, label %23, label %41

23:                                               ; preds = %20
  %24 = load ptr, ptr %7, align 8, !tbaa !43
  %25 = getelementptr inbounds nuw %struct.translation_ctx_st, ptr %24, i32 0, i32 1
  %26 = load i32, ptr %25, align 8, !tbaa !35
  %27 = icmp eq i32 %26, 1
  br i1 %27, label %28, label %41

28:                                               ; preds = %23
  %29 = load ptr, ptr %7, align 8, !tbaa !43
  %30 = getelementptr inbounds nuw %struct.translation_ctx_st, ptr %29, i32 0, i32 6
  %31 = load ptr, ptr %30, align 8, !tbaa !40
  %32 = load ptr, ptr %7, align 8, !tbaa !43
  %33 = getelementptr inbounds nuw %struct.translation_ctx_st, ptr %32, i32 0, i32 9
  store ptr %31, ptr %33, align 8, !tbaa !71
  %34 = load ptr, ptr %7, align 8, !tbaa !43
  %35 = getelementptr inbounds nuw %struct.translation_ctx_st, ptr %34, i32 0, i32 10
  %36 = getelementptr inbounds [50 x i8], ptr %35, i64 0, i64 0
  %37 = load ptr, ptr %7, align 8, !tbaa !43
  %38 = getelementptr inbounds nuw %struct.translation_ctx_st, ptr %37, i32 0, i32 6
  store ptr %36, ptr %38, align 8, !tbaa !40
  %39 = load ptr, ptr %7, align 8, !tbaa !43
  %40 = getelementptr inbounds nuw %struct.translation_ctx_st, ptr %39, i32 0, i32 5
  store i32 50, ptr %40, align 4, !tbaa !39
  br label %112

41:                                               ; preds = %23, %20
  %42 = load ptr, ptr %7, align 8, !tbaa !43
  %43 = getelementptr inbounds nuw %struct.translation_ctx_st, ptr %42, i32 0, i32 1
  %44 = load i32, ptr %43, align 8, !tbaa !35
  %45 = icmp eq i32 %44, 2
  br i1 %45, label %46, label %49

46:                                               ; preds = %41
  %47 = load i32, ptr %5, align 4, !tbaa !8
  %48 = icmp eq i32 %47, 1
  br i1 %48, label %57, label %49

49:                                               ; preds = %46, %41
  %50 = load ptr, ptr %7, align 8, !tbaa !43
  %51 = getelementptr inbounds nuw %struct.translation_ctx_st, ptr %50, i32 0, i32 1
  %52 = load i32, ptr %51, align 8, !tbaa !35
  %53 = icmp eq i32 %52, 1
  br i1 %53, label %54, label %111

54:                                               ; preds = %49
  %55 = load i32, ptr %5, align 4, !tbaa !8
  %56 = icmp eq i32 %55, 8
  br i1 %56, label %57, label %111

57:                                               ; preds = %54, %46
  call void @llvm.lifetime.start.p0(i64 8, ptr %10) #9
  store i64 0, ptr %10, align 8, !tbaa !51
  br label %58

58:                                               ; preds = %72, %57
  %59 = load i64, ptr %10, align 8, !tbaa !51
  %60 = icmp ult i64 %59, 3
  br i1 %60, label %61, label %75

61:                                               ; preds = %58
  %62 = load ptr, ptr %7, align 8, !tbaa !43
  %63 = getelementptr inbounds nuw %struct.translation_ctx_st, ptr %62, i32 0, i32 5
  %64 = load i32, ptr %63, align 4, !tbaa !39
  %65 = load i64, ptr %10, align 8, !tbaa !51
  %66 = getelementptr inbounds nuw [3 x %struct.ossl_item_st], ptr @fix_rsa_pss_saltlen.str_value_map, i64 0, i64 %65
  %67 = getelementptr inbounds nuw %struct.ossl_item_st, ptr %66, i32 0, i32 0
  %68 = load i32, ptr %67, align 16, !tbaa !72
  %69 = icmp eq i32 %64, %68
  br i1 %69, label %70, label %71

70:                                               ; preds = %61
  br label %75

71:                                               ; preds = %61
  br label %72

72:                                               ; preds = %71
  %73 = load i64, ptr %10, align 8, !tbaa !51
  %74 = add i64 %73, 1
  store i64 %74, ptr %10, align 8, !tbaa !51
  br label %58, !llvm.loop !77

75:                                               ; preds = %70, %58
  %76 = load i64, ptr %10, align 8, !tbaa !51
  %77 = icmp eq i64 %76, 3
  br i1 %77, label %78, label %86

78:                                               ; preds = %75
  %79 = load ptr, ptr %7, align 8, !tbaa !43
  %80 = getelementptr inbounds nuw %struct.translation_ctx_st, ptr %79, i32 0, i32 10
  %81 = getelementptr inbounds [50 x i8], ptr %80, i64 0, i64 0
  %82 = load ptr, ptr %7, align 8, !tbaa !43
  %83 = getelementptr inbounds nuw %struct.translation_ctx_st, ptr %82, i32 0, i32 5
  %84 = load i32, ptr %83, align 4, !tbaa !39
  %85 = call i32 (ptr, i64, ptr, ...) @BIO_snprintf(ptr noundef %81, i64 noundef 50, ptr noundef @.str.97, i32 noundef %84)
  br label %98

86:                                               ; preds = %75
  %87 = load ptr, ptr %7, align 8, !tbaa !43
  %88 = getelementptr inbounds nuw %struct.translation_ctx_st, ptr %87, i32 0, i32 10
  %89 = getelementptr inbounds [50 x i8], ptr %88, i64 0, i64 0
  %90 = load i64, ptr %10, align 8, !tbaa !51
  %91 = getelementptr inbounds nuw [3 x %struct.ossl_item_st], ptr @fix_rsa_pss_saltlen.str_value_map, i64 0, i64 %90
  %92 = getelementptr inbounds nuw %struct.ossl_item_st, ptr %91, i32 0, i32 1
  %93 = load ptr, ptr %92, align 8, !tbaa !75
  %94 = call ptr @strncpy(ptr noundef %89, ptr noundef %93, i64 noundef 49) #9
  %95 = load ptr, ptr %7, align 8, !tbaa !43
  %96 = getelementptr inbounds nuw %struct.translation_ctx_st, ptr %95, i32 0, i32 10
  %97 = getelementptr inbounds nuw [50 x i8], ptr %96, i64 0, i64 49
  store i8 0, ptr %97, align 1, !tbaa !46
  br label %98

98:                                               ; preds = %86, %78
  %99 = load ptr, ptr %7, align 8, !tbaa !43
  %100 = getelementptr inbounds nuw %struct.translation_ctx_st, ptr %99, i32 0, i32 10
  %101 = getelementptr inbounds [50 x i8], ptr %100, i64 0, i64 0
  %102 = load ptr, ptr %7, align 8, !tbaa !43
  %103 = getelementptr inbounds nuw %struct.translation_ctx_st, ptr %102, i32 0, i32 6
  store ptr %101, ptr %103, align 8, !tbaa !40
  %104 = load ptr, ptr %7, align 8, !tbaa !43
  %105 = getelementptr inbounds nuw %struct.translation_ctx_st, ptr %104, i32 0, i32 6
  %106 = load ptr, ptr %105, align 8, !tbaa !40
  %107 = call i64 @strlen(ptr noundef %106) #10
  %108 = trunc i64 %107 to i32
  %109 = load ptr, ptr %7, align 8, !tbaa !43
  %110 = getelementptr inbounds nuw %struct.translation_ctx_st, ptr %109, i32 0, i32 5
  store i32 %108, ptr %110, align 4, !tbaa !39
  call void @llvm.lifetime.end.p0(i64 8, ptr %10) #9
  br label %111

111:                                              ; preds = %98, %54, %49
  br label %112

112:                                              ; preds = %111, %28
  %113 = load i32, ptr %5, align 4, !tbaa !8
  %114 = load ptr, ptr %6, align 8, !tbaa !11
  %115 = load ptr, ptr %7, align 8, !tbaa !43
  %116 = call i32 @default_fixup_args(i32 noundef %113, ptr noundef %114, ptr noundef %115)
  store i32 %116, ptr %8, align 4, !tbaa !8
  %117 = icmp sle i32 %116, 0
  br i1 %117, label %118, label %120

118:                                              ; preds = %112
  %119 = load i32, ptr %8, align 4, !tbaa !8
  store i32 %119, ptr %4, align 4
  store i32 1, ptr %9, align 4
  br label %186

120:                                              ; preds = %112
  %121 = load ptr, ptr %7, align 8, !tbaa !43
  %122 = getelementptr inbounds nuw %struct.translation_ctx_st, ptr %121, i32 0, i32 1
  %123 = load i32, ptr %122, align 8, !tbaa !35
  %124 = icmp eq i32 %123, 2
  br i1 %124, label %125, label %128

125:                                              ; preds = %120
  %126 = load i32, ptr %5, align 4, !tbaa !8
  %127 = icmp eq i32 %126, 7
  br i1 %127, label %136, label %128

128:                                              ; preds = %125, %120
  %129 = load ptr, ptr %7, align 8, !tbaa !43
  %130 = getelementptr inbounds nuw %struct.translation_ctx_st, ptr %129, i32 0, i32 1
  %131 = load i32, ptr %130, align 8, !tbaa !35
  %132 = icmp eq i32 %131, 1
  br i1 %132, label %133, label %184

133:                                              ; preds = %128
  %134 = load i32, ptr %5, align 4, !tbaa !8
  %135 = icmp eq i32 %134, 2
  br i1 %135, label %136, label %184

136:                                              ; preds = %133, %125
  call void @llvm.lifetime.start.p0(i64 8, ptr %11) #9
  call void @llvm.lifetime.start.p0(i64 4, ptr %12) #9
  store i64 0, ptr %11, align 8, !tbaa !51
  br label %137

137:                                              ; preds = %152, %136
  %138 = load i64, ptr %11, align 8, !tbaa !51
  %139 = icmp ult i64 %138, 3
  br i1 %139, label %140, label %155

140:                                              ; preds = %137
  %141 = load ptr, ptr %7, align 8, !tbaa !43
  %142 = getelementptr inbounds nuw %struct.translation_ctx_st, ptr %141, i32 0, i32 6
  %143 = load ptr, ptr %142, align 8, !tbaa !40
  %144 = load i64, ptr %11, align 8, !tbaa !51
  %145 = getelementptr inbounds nuw [3 x %struct.ossl_item_st], ptr @fix_rsa_pss_saltlen.str_value_map, i64 0, i64 %144
  %146 = getelementptr inbounds nuw %struct.ossl_item_st, ptr %145, i32 0, i32 1
  %147 = load ptr, ptr %146, align 8, !tbaa !75
  %148 = call i32 @strcmp(ptr noundef %143, ptr noundef %147) #10
  %149 = icmp eq i32 %148, 0
  br i1 %149, label %150, label %151

150:                                              ; preds = %140
  br label %155

151:                                              ; preds = %140
  br label %152

152:                                              ; preds = %151
  %153 = load i64, ptr %11, align 8, !tbaa !51
  %154 = add i64 %153, 1
  store i64 %154, ptr %11, align 8, !tbaa !51
  br label %137, !llvm.loop !78

155:                                              ; preds = %150, %137
  %156 = load i64, ptr %11, align 8, !tbaa !51
  %157 = icmp eq i64 %156, 3
  br i1 %157, label %158, label %163

158:                                              ; preds = %155
  %159 = load ptr, ptr %7, align 8, !tbaa !43
  %160 = getelementptr inbounds nuw %struct.translation_ctx_st, ptr %159, i32 0, i32 6
  %161 = load ptr, ptr %160, align 8, !tbaa !40
  %162 = call i32 @atoi(ptr noundef %161) #10
  br label %168

163:                                              ; preds = %155
  %164 = load i64, ptr %11, align 8, !tbaa !51
  %165 = getelementptr inbounds nuw [3 x %struct.ossl_item_st], ptr @fix_rsa_pss_saltlen.str_value_map, i64 0, i64 %164
  %166 = getelementptr inbounds nuw %struct.ossl_item_st, ptr %165, i32 0, i32 0
  %167 = load i32, ptr %166, align 16, !tbaa !72
  br label %168

168:                                              ; preds = %163, %158
  %169 = phi i32 [ %162, %158 ], [ %167, %163 ]
  store i32 %169, ptr %12, align 4, !tbaa !8
  %170 = load i32, ptr %5, align 4, !tbaa !8
  %171 = icmp eq i32 %170, 2
  br i1 %171, label %172, label %177

172:                                              ; preds = %168
  %173 = load i32, ptr %12, align 4, !tbaa !8
  %174 = load ptr, ptr %7, align 8, !tbaa !43
  %175 = getelementptr inbounds nuw %struct.translation_ctx_st, ptr %174, i32 0, i32 9
  %176 = load ptr, ptr %175, align 8, !tbaa !71
  store i32 %173, ptr %176, align 4, !tbaa !8
  br label %181

177:                                              ; preds = %168
  %178 = load i32, ptr %12, align 4, !tbaa !8
  %179 = load ptr, ptr %7, align 8, !tbaa !43
  %180 = getelementptr inbounds nuw %struct.translation_ctx_st, ptr %179, i32 0, i32 5
  store i32 %178, ptr %180, align 4, !tbaa !39
  br label %181

181:                                              ; preds = %177, %172
  %182 = load ptr, ptr %7, align 8, !tbaa !43
  %183 = getelementptr inbounds nuw %struct.translation_ctx_st, ptr %182, i32 0, i32 6
  store ptr null, ptr %183, align 8, !tbaa !40
  call void @llvm.lifetime.end.p0(i64 4, ptr %12) #9
  call void @llvm.lifetime.end.p0(i64 8, ptr %11) #9
  br label %184

184:                                              ; preds = %181, %133, %128
  %185 = load i32, ptr %8, align 4, !tbaa !8
  store i32 %185, ptr %4, align 4
  store i32 1, ptr %9, align 4
  br label %186

186:                                              ; preds = %184, %118, %18
  call void @llvm.lifetime.end.p0(i64 4, ptr %8) #9
  %187 = load i32, ptr %4, align 4
  ret i32 %187
}