; Function Attrs: nounwind uwtable
define internal i32 @fix_rsa_pss_saltlen(i32 noundef %0, ptr noundef captures(address_is_null) %1, ptr noundef %2) #0 {
  %4 = tail call fastcc i32 @default_check(i32 noundef %0, ptr noundef %1)
  %5 = icmp slt i32 %4, 1
  br i1 %5, label %78, label %6

6:                                                ; preds = %3
  %7 = icmp eq i32 %0, 1
  %8 = getelementptr inbounds nuw i8, ptr %2, i64 8
  %9 = load i32, ptr %8, align 8, !tbaa !29
  %10 = icmp eq i32 %9, 1
  br i1 %7, label %11, label %20

11:                                               ; preds = %6
  br i1 %10, label %12, label %18

12:                                               ; preds = %11
  %13 = getelementptr inbounds nuw i8, ptr %2, i64 32
  %14 = load ptr, ptr %13, align 8, !tbaa !35
  %15 = getelementptr inbounds nuw i8, ptr %2, i64 56
  store ptr %14, ptr %15, align 8, !tbaa !65
  %16 = getelementptr inbounds nuw i8, ptr %2, i64 64
  store ptr %16, ptr %13, align 8, !tbaa !35
  %17 = getelementptr inbounds nuw i8, ptr %2, i64 28
  store i32 50, ptr %17, align 4, !tbaa !34
  br label %.thread63

18:                                               ; preds = %11
  %19 = icmp eq i32 %9, 2
  br i1 %19, label %22, label %.thread63

20:                                               ; preds = %6
  %21 = icmp eq i32 %0, 8
  %or.cond3 = and i1 %21, %10
  br i1 %or.cond3, label %22, label %.thread63

22:                                               ; preds = %20, %18
  %23 = getelementptr inbounds nuw i8, ptr %2, i64 28
  %24 = load i32, ptr %23, align 4, !tbaa !34
  br label %25

25:                                               ; preds = %22, %29
  %.05971 = phi i64 [ 0, %22 ], [ %30, %29 ]
  %26 = getelementptr inbounds nuw [3 x %struct.ossl_item_st], ptr @fix_rsa_pss_saltlen.str_value_map, i64 0, i64 %.05971
  %27 = load i32, ptr %26, align 16, !tbaa !67
  %28 = icmp eq i32 %24, %27
  br i1 %28, label %.thread65, label %29

29:                                               ; preds = %25
  %30 = add nuw nsw i64 %.05971, 1
  %exitcond.not = icmp eq i64 %30, 3
  br i1 %exitcond.not, label %31, label %25, !llvm.loop !72

31:                                               ; preds = %29
  %32 = getelementptr inbounds nuw i8, ptr %2, i64 64
  %33 = tail call i32 (ptr, i64, ptr, ...) @BIO_snprintf(ptr noundef nonnull %32, i64 noundef 50, ptr noundef nonnull @.str.97, i32 noundef %24) #8
  br label %39

.thread65:                                        ; preds = %25
  %34 = getelementptr inbounds nuw i8, ptr %2, i64 64
  %35 = getelementptr inbounds nuw [3 x %struct.ossl_item_st], ptr @fix_rsa_pss_saltlen.str_value_map, i64 0, i64 %.05971, i32 1
  %36 = load ptr, ptr %35, align 8, !tbaa !70
  %37 = tail call ptr @strncpy(ptr noundef nonnull dereferenceable(1) %34, ptr noundef nonnull dereferenceable(1) %36, i64 noundef 49) #8
  %38 = getelementptr inbounds nuw i8, ptr %2, i64 113
  store i8 0, ptr %38, align 1, !tbaa !40
  br label %39

39:                                               ; preds = %.thread65, %31
  %40 = getelementptr inbounds nuw i8, ptr %2, i64 64
  %41 = getelementptr inbounds nuw i8, ptr %2, i64 32
  store ptr %40, ptr %41, align 8, !tbaa !35
  %42 = tail call i64 @strlen(ptr noundef nonnull dereferenceable(1) %40) #9
  %43 = trunc i64 %42 to i32
  store i32 %43, ptr %23, align 4, !tbaa !34
  br label %.thread63

.thread63:                                        ; preds = %18, %20, %39, %12
  %44 = tail call i32 @default_fixup_args(i32 noundef %0, ptr noundef %1, ptr noundef nonnull %2)
  %45 = icmp slt i32 %44, 1
  br i1 %45, label %78, label %46

46:                                               ; preds = %.thread63
  %47 = getelementptr inbounds nuw i8, ptr %2, i64 8
  %48 = load i32, ptr %47, align 8, !tbaa !29
  %49 = icmp eq i32 %48, 2
  %50 = icmp eq i32 %0, 7
  %or.cond5 = and i1 %50, %49
  br i1 %or.cond5, label %54, label %51

51:                                               ; preds = %46
  %52 = icmp eq i32 %48, 1
  %53 = icmp eq i32 %0, 2
  %or.cond7 = and i1 %53, %52
  br i1 %or.cond7, label %54, label %78

54:                                               ; preds = %51, %46
  %55 = getelementptr inbounds nuw i8, ptr %2, i64 32
  %56 = load ptr, ptr %55, align 8, !tbaa !35
  br label %57

57:                                               ; preds = %54, %62
  %.05872 = phi i64 [ 0, %54 ], [ %63, %62 ]
  %58 = getelementptr inbounds nuw [3 x %struct.ossl_item_st], ptr @fix_rsa_pss_saltlen.str_value_map, i64 0, i64 %.05872, i32 1
  %59 = load ptr, ptr %58, align 8, !tbaa !70
  %60 = tail call i32 @strcmp(ptr noundef nonnull dereferenceable(1) %56, ptr noundef nonnull dereferenceable(1) %59) #9
  %61 = icmp eq i32 %60, 0
  br i1 %61, label %.thread66, label %62

62:                                               ; preds = %57
  %63 = add nuw nsw i64 %.05872, 1
  %exitcond76.not = icmp eq i64 %63, 3
  br i1 %exitcond76.not, label %64, label %57, !llvm.loop !73

64:                                               ; preds = %62
  %65 = tail call i64 @strtol(ptr noundef nonnull captures(none) %56, ptr noundef null, i32 noundef 10) #8
  %66 = trunc i64 %65 to i32
  br label %69

.thread66:                                        ; preds = %57
  %67 = getelementptr inbounds nuw [3 x %struct.ossl_item_st], ptr @fix_rsa_pss_saltlen.str_value_map, i64 0, i64 %.05872
  %68 = load i32, ptr %67, align 16, !tbaa !67
  br label %69

69:                                               ; preds = %.thread66, %64
  %70 = phi i32 [ %66, %64 ], [ %68, %.thread66 ]
  %71 = icmp eq i32 %0, 2
  br i1 %71, label %72, label %75

72:                                               ; preds = %69
  %73 = getelementptr inbounds nuw i8, ptr %2, i64 56
  %74 = load ptr, ptr %73, align 8, !tbaa !65
  store i32 %70, ptr %74, align 4, !tbaa !45
  br label %77

75:                                               ; preds = %69
  %76 = getelementptr inbounds nuw i8, ptr %2, i64 28
  store i32 %70, ptr %76, align 4, !tbaa !34
  br label %77

77:                                               ; preds = %75, %72
  store ptr null, ptr %55, align 8, !tbaa !35
  br label %78

78:                                               ; preds = %51, %77, %.thread63, %3
  %.0 = phi i32 [ %4, %3 ], [ %44, %.thread63 ], [ %44, %77 ], [ %44, %51 ]
  ret i32 %.0
}